target datalayout = "e-m:e-p270:32:32-p271:32:32-p272:64:64-i64:64-i128:128-f80:128-n8:16:32:64-S128"
target triple = "x86_64-pc-linux-gnu"

%struct.mbedtls_ecp_group = type { i32, %struct.mbedtls_mpi, %struct.mbedtls_mpi, %struct.mbedtls_mpi, %struct.mbedtls_ecp_point, %struct.mbedtls_mpi, i64, i64, i32, ptr, ptr, ptr, ptr, ptr, i64 }
%struct.mbedtls_ecp_point = type { %struct.mbedtls_mpi, %struct.mbedtls_mpi, %struct.mbedtls_mpi }
%struct.mbedtls_mpi = type { ptr, i16, i16 }
%struct.mbedtls_ecdh_context = type { i8, i32, i32, %union.anon }
%union.anon = type { %struct.mbedtls_ecdh_context_mbed }
%struct.mbedtls_ecdh_context_mbed = type { %struct.mbedtls_ecp_group, %struct.mbedtls_mpi, %struct.mbedtls_ecp_point, %struct.mbedtls_ecp_point, %struct.mbedtls_mpi }

; Function Attrs: nounwind uwtable
define internal i32 @ecdh_setup_internal(ptr noundef %0, i32 noundef %1) #0 {
  %3 = alloca i32, align 4
  %4 = alloca ptr, align 8
  %5 = alloca i32, align 4
  %6 = alloca i32, align 4
  %7 = alloca i32, align 4
  store ptr %0, ptr %4, align 8, !tbaa !21
  store i32 %1, ptr %5, align 4, !tbaa !3
  call void @llvm.lifetime.start.p0(i64 4, ptr %6) #4
  store i32 -110, ptr %6, align 4, !tbaa !3
  %8 = load ptr, ptr %4, align 8, !tbaa !21
  %9 = getelementptr inbounds nuw %struct.mbedtls_ecdh_context_mbed, ptr %8, i32 0, i32 0
  %10 = load i32, ptr %5, align 4, !tbaa !3
  %11 = call i32 @mbedtls_ecp_group_load(ptr noundef %9, i32 noundef %10)
  store i32 %11, ptr %6, align 4, !tbaa !3
  %12 = load i32, ptr %6, align 4, !tbaa !3
  %13 = icmp ne i32 %12, 0
  br i1 %13, label %14, label %15

14:                                               ; preds = %2
  store i32 -20096, ptr %3, align 4
  store i32 1, ptr %7, align 4
  br label %16

15:                                               ; preds = %2
  store i32 0, ptr %3, align 4
  store i32 1, ptr %7, align 4
  br label %16

16:                                               ; preds = %15, %14
  call void @llvm.lifetime.end.p0(i64 4, ptr %6) #4
  %17 = load i32, ptr %3, align 4
  ret i32 %17
}

; Function Attrs: nounwind uwtable
define internal void @ecdh_init_internal(ptr noundef %0) #0 {
  %2 = alloca ptr, align 8
  store ptr %0, ptr %2, align 8, !tbaa !21
  %3 = load ptr, ptr %2, align 8, !tbaa !21
  %4 = getelementptr inbounds nuw %struct.mbedtls_ecdh_context_mbed, ptr %3, i32 0, i32 0
  call void @mbedtls_ecp_group_init(ptr noundef %4)
  %5 = load ptr, ptr %2, align 8, !tbaa !21
  %6 = getelementptr inbounds nuw %struct.mbedtls_ecdh_context_mbed, ptr %5, i32 0, i32 1
  call void @mbedtls_mpi_init(ptr noundef %6)
  %7 = load ptr, ptr %2, align 8, !tbaa !21
  %8 = getelementptr inbounds nuw %struct.mbedtls_ecdh_context_mbed, ptr %7, i32 0, i32 2
  call void @mbedtls_ecp_point_init(ptr noundef %8)
  %9 = load ptr, ptr %2, align 8, !tbaa !21
  %10 = getelementptr inbounds nuw %struct.mbedtls_ecdh_context_mbed, ptr %9, i32 0, i32 3
  call void @mbedtls_ecp_point_init(ptr noundef %10)
  %11 = load ptr, ptr %2, align 8, !tbaa !21
  %12 = getelementptr inbounds nuw %struct.mbedtls_ecdh_context_mbed, ptr %11, i32 0, i32 4
  call void @mbedtls_mpi_init(ptr noundef %12)
  ret void
}

; Function Attrs: nounwind uwtable
define internal i32 @ecdh_read_params_internal(ptr noundef %0, ptr noundef %1, ptr noundef %2) #0 {
  %4 = alloca ptr, align 8
  %5 = alloca ptr, align 8
  %6 = alloca ptr, align 8
  store ptr %0, ptr %4, align 8, !tbaa !21
  store ptr %1, ptr %5, align 8, !tbaa !35
  store ptr %2, ptr %6, align 8, !tbaa !25
  %7 = load ptr, ptr %4, align 8, !tbaa !21
  %8 = getelementptr inbounds nuw %struct.mbedtls_ecdh_context_mbed, ptr %7, i32 0, i32 0
  %9 = load ptr, ptr %4, align 8, !tbaa !21
  %10 = getelementptr inbounds nuw %struct.mbedtls_ecdh_context_mbed, ptr %9, i32 0, i32 3
  %11 = load ptr, ptr %5, align 8, !tbaa !35
  %12 = load ptr, ptr %6, align 8, !tbaa !25
  %13 = load ptr, ptr %5, align 8, !tbaa !35
  %14 = load ptr, ptr %13, align 8, !tbaa !25
  %15 = ptrtoint ptr %12 to i64
  %16 = ptrtoint ptr %14 to i64
  %17 = sub i64 %15, %16
  %18 = call i32 @mbedtls_ecp_tls_read_point(ptr noundef %8, ptr noundef %10, ptr noundef %11, i64 noundef %17)
  ret i32 %18
}

; Function Attrs: nounwind uwtable
define hidden i32 @mbedtls_ecdh_setup(ptr noundef %0, i32 noundef %1) #0 {
  %3 = alloca ptr, align 8
  %4 = alloca i32, align 4
  store ptr %0, ptr %3, align 8, !tbaa !15
  store i32 %1, ptr %4, align 4, !tbaa !3
  %5 = load i32, ptr %4, align 4, !tbaa !3
  switch i32 %5, label %6 [
  ]

6:                                                ; preds = %2
  %7 = load ptr, ptr %3, align 8, !tbaa !15
  %8 = getelementptr inbounds nuw %struct.mbedtls_ecdh_context, ptr %7, i32 0, i32 0
  store i8 0, ptr %8, align 8, !tbaa !20
  %9 = load ptr, ptr %3, align 8, !tbaa !15
  %10 = getelementptr inbounds nuw %struct.mbedtls_ecdh_context, ptr %9, i32 0, i32 2
  store i32 1, ptr %10, align 8, !tbaa !19
  %11 = load i32, ptr %4, align 4, !tbaa !3
  %12 = load ptr, ptr %3, align 8, !tbaa !15
  %13 = getelementptr inbounds nuw %struct.mbedtls_ecdh_context, ptr %12, i32 0, i32 1
  store i32 %11, ptr %13, align 4, !tbaa !17
  %14 = load ptr, ptr %3, align 8, !tbaa !15
  %15 = getelementptr inbounds nuw %struct.mbedtls_ecdh_context, ptr %14, i32 0, i32 3
  call void @ecdh_init_internal(ptr noundef %15)
  %16 = load ptr, ptr %3, align 8, !tbaa !15
  %17 = getelementptr inbounds nuw %struct.mbedtls_ecdh_context, ptr %16, i32 0, i32 3
  %18 = load i32, ptr %4, align 4, !tbaa !3
  %19 = call i32 @ecdh_setup_internal(ptr noundef %17, i32 noundef %18)
  ret i32 %19
}

; Function Attrs: nounwind uwtable
define hidden i32 @mbedtls_ecdh_read_params(ptr noundef %0, ptr noundef %1, ptr noundef %2) #0 {
  %4 = alloca i32, align 4
  %5 = alloca ptr, align 8
  %6 = alloca ptr, align 8
  %7 = alloca ptr, align 8
  %8 = alloca i32, align 4
  %9 = alloca i32, align 4
  %10 = alloca i32, align 4
  store ptr %0, ptr %5, align 8, !tbaa !15
  store ptr %1, ptr %6, align 8, !tbaa !35
  store ptr %2, ptr %7, align 8, !tbaa !25
  call void @llvm.lifetime.start.p0(i64 4, ptr %8) #4
  store i32 -110, ptr %8, align 4, !tbaa !3
  call void @llvm.lifetime.start.p0(i64 4, ptr %9) #4
  %11 = load ptr, ptr %6, align 8, !tbaa !35
  %12 = load ptr, ptr %7, align 8, !tbaa !25
  %13 = load ptr, ptr %6, align 8, !tbaa !35
  %14 = load ptr, ptr %13, align 8, !tbaa !25
  %15 = ptrtoint ptr %12 to i64
  %16 = ptrtoint ptr %14 to i64
  %17 = sub i64 %15, %16
  %18 = call i32 @mbedtls_ecp_tls_read_group_id(ptr noundef %9, ptr noundef %11, i64 noundef %17)
  store i32 %18, ptr %8, align 4, !tbaa !3
  %19 = icmp ne i32 %18, 0
  br i1 %19, label %20, label %22

20:                                               ; preds = %3
  %21 = load i32, ptr %8, align 4, !tbaa !3
  store i32 %21, ptr %4, align 4
  store i32 1, ptr %10, align 4
  br label %40

22:                                               ; preds = %3
  %23 = load ptr, ptr %5, align 8, !tbaa !15
  %24 = load i32, ptr %9, align 4, !tbaa !3
  %25 = call i32 @mbedtls_ecdh_setup(ptr noundef %23, i32 noundef %24)
  store i32 %25, ptr %8, align 4, !tbaa !3
  %26 = icmp ne i32 %25, 0
  br i1 %26, label %27, label %29

27:                                               ; preds = %22
  %28 = load i32, ptr %8, align 4, !tbaa !3
  store i32 %28, ptr %4, align 4
  store i32 1, ptr %10, align 4
  br label %40

29:                                               ; preds = %22
  %30 = load ptr, ptr %5, align 8, !tbaa !15
  %31 = getelementptr inbounds nuw %struct.mbedtls_ecdh_context, ptr %30, i32 0, i32 2
  %32 = load i32, ptr %31, align 8, !tbaa !19
  switch i32 %32, label %39 [
    i32 1, label %33
  ]

33:                                               ; preds = %29
  %34 = load ptr, ptr %5, align 8, !tbaa !15
  %35 = getelementptr inbounds nuw %struct.mbedtls_ecdh_context, ptr %34, i32 0, i32 3
  %36 = load ptr, ptr %6, align 8, !tbaa !35
  %37 = load ptr, ptr %7, align 8, !tbaa !25
  %38 = call i32 @ecdh_read_params_internal(ptr noundef %35, ptr noundef %36, ptr noundef %37)
  store i32 %38, ptr %4, align 4
  store i32 1, ptr %10, align 4
  br label %40

39:                                               ; preds = %29
  store i32 -20352, ptr %4, align 4
  store i32 1, ptr %10, align 4
  br label %40

40:                                               ; preds = %39, %33, %27, %20
  call void @llvm.lifetime.end.p0(i64 4, ptr %9) #4
  call void @llvm.lifetime.end.p0(i64 4, ptr %8) #4
  %41 = load i32, ptr %4, align 4
  ret i32 %41
}