; Function Attrs: nounwind uwtable
define hidden i32 @mbedtls_ecdh_read_params(ptr noundef %0, ptr noundef %1, ptr noundef %2) local_unnamed_addr #1 {
  %4 = alloca i32, align 4
  call void @llvm.lifetime.start.p0(i64 4, ptr nonnull %4) #7
  %5 = load ptr, ptr %1, align 8, !tbaa !21
  %6 = ptrtoint ptr %2 to i64
  %7 = ptrtoint ptr %5 to i64
  %8 = sub i64 %6, %7
  %9 = call i32 @mbedtls_ecp_tls_read_group_id(ptr noundef nonnull %4, ptr noundef nonnull %1, i64 noundef %8) #7
  %.not = icmp eq i32 %9, 0
  br i1 %.not, label %10, label %27

10:                                               ; preds = %3
  %11 = load i32, ptr %4, align 4, !tbaa !23
  store i8 0, ptr %0, align 8, !tbaa !8
  %12 = getelementptr inbounds nuw i8, ptr %0, i64 8
  store i32 1, ptr %12, align 8, !tbaa !9
  %13 = getelementptr inbounds nuw i8, ptr %0, i64 4
  store i32 %11, ptr %13, align 4, !tbaa !3
  %14 = getelementptr inbounds nuw i8, ptr %0, i64 16
  call void @mbedtls_ecp_group_init(ptr noundef nonnull %14) #7
  %15 = getelementptr inbounds nuw i8, ptr %0, i64 208
  call void @mbedtls_mpi_init(ptr noundef nonnull %15) #7
  %16 = getelementptr inbounds nuw i8, ptr %0, i64 224
  call void @mbedtls_ecp_point_init(ptr noundef nonnull %16) #7
  %17 = getelementptr inbounds nuw i8, ptr %0, i64 272
  call void @mbedtls_ecp_point_init(ptr noundef nonnull %17) #7
  %18 = getelementptr inbounds nuw i8, ptr %0, i64 320
  call void @mbedtls_mpi_init(ptr noundef nonnull %18) #7
  %19 = call i32 @mbedtls_ecp_group_load(ptr noundef nonnull %14, i32 noundef %11) #7
  %.not.i.i = icmp eq i32 %19, 0
  br i1 %.not.i.i, label %20, label %27

20:                                               ; preds = %10
  %21 = load i32, ptr %12, align 8, !tbaa !9
  %cond = icmp eq i32 %21, 1
  br i1 %cond, label %22, label %27

22:                                               ; preds = %20
  %23 = load ptr, ptr %1, align 8, !tbaa !21
  %24 = ptrtoint ptr %23 to i64
  %25 = sub i64 %6, %24
  %26 = call i32 @mbedtls_ecp_tls_read_point(ptr noundef nonnull %14, ptr noundef nonnull %17, ptr noundef nonnull %1, i64 noundef %25) #7
  br label %27

27:                                               ; preds = %20, %10, %3, %22
  %.0 = phi i32 [ %26, %22 ], [ %9, %3 ], [ -20096, %10 ], [ -20352, %20 ]
  call void @llvm.lifetime.end.p0(i64 4, ptr nonnull %4) #7
  ret i32 %.0
}